target datalayout = "e-m:e-p270:32:32-p271:32:32-p272:64:64-i64:64-i128:128-f80:128-n8:16:32:64-S128"
target triple = "x86_64-pc-linux-gnu"

%struct.zmq_poller_event_t = type { ptr, i32, ptr, i16 }

; Function Attrs: mustprogress uwtable
define internal noundef i32 @_ZL12check_pollerPv(ptr noundef %0) #1 {
  %2 = alloca i32, align 4
  %3 = alloca ptr, align 8
  store ptr %0, ptr %3, align 8, !tbaa !12
  %4 = load ptr, ptr %3, align 8, !tbaa !12
  %5 = icmp ne ptr %4, null
  br i1 %5, label %6, label %9

6:                                                ; preds = %1
  %7 = load ptr, ptr %3, align 8, !tbaa !12
  %8 = call noundef zeroext i1 @_ZNK3zmq15socket_poller_t9check_tagEv(ptr noundef nonnull align 8 dereferenceable(56) %7)
  br i1 %8, label %11, label %9

9:                                                ; preds = %6, %1
  %10 = call ptr @__errno_location() #19
  store i32 14, ptr %10, align 4, !tbaa !8
  store i32 -1, ptr %2, align 4
  br label %12

11:                                               ; preds = %6
  store i32 0, ptr %2, align 4
  br label %12

12:                                               ; preds = %11, %9
  %13 = load i32, ptr %2, align 4
  ret i32 %13
}

; Function Attrs: mustprogress uwtable
define i32 @zmq_poller_wait_all(ptr noundef %0, ptr noundef %1, i32 noundef %2, i64 noundef %3) #1 {
  %5 = alloca i32, align 4
  %6 = alloca ptr, align 8
  %7 = alloca ptr, align 8
  %8 = alloca i32, align 4
  %9 = alloca i64, align 8
  %10 = alloca i32, align 4
  store ptr %0, ptr %6, align 8, !tbaa !12
  store ptr %1, ptr %7, align 8, !tbaa !63
  store i32 %2, ptr %8, align 4, !tbaa !8
  store i64 %3, ptr %9, align 8, !tbaa !13
  %11 = load ptr, ptr %6, align 8, !tbaa !12
  %12 = call noundef i32 @_ZL12check_pollerPv(ptr noundef %11)
  %13 = icmp eq i32 -1, %12
  br i1 %13, label %14, label %15

14:                                               ; preds = %4
  store i32 -1, ptr %5, align 4
  br label %32

15:                                               ; preds = %4
  %16 = load ptr, ptr %7, align 8, !tbaa !63
  %17 = icmp ne ptr %16, null
  br i1 %17, label %20, label %18

18:                                               ; preds = %15
  %19 = call ptr @__errno_location() #19
  store i32 14, ptr %19, align 4, !tbaa !8
  store i32 -1, ptr %5, align 4
  br label %32

20:                                               ; preds = %15
  %21 = load i32, ptr %8, align 4, !tbaa !8
  %22 = icmp slt i32 %21, 0
  br i1 %22, label %23, label %25

23:                                               ; preds = %20
  %24 = call ptr @__errno_location() #19
  store i32 22, ptr %24, align 4, !tbaa !8
  store i32 -1, ptr %5, align 4
  br label %32

25:                                               ; preds = %20
  call void @llvm.lifetime.start.p0(i64 4, ptr %10) #20
  %26 = load ptr, ptr %6, align 8, !tbaa !12
  %27 = load ptr, ptr %7, align 8, !tbaa !63
  %28 = load i32, ptr %8, align 4, !tbaa !8
  %29 = load i64, ptr %9, align 8, !tbaa !13
  %30 = call noundef i32 @_ZN3zmq15socket_poller_t4waitEP18zmq_poller_event_til(ptr noundef nonnull align 8 dereferenceable(56) %26, ptr noundef %27, i32 noundef %28, i64 noundef %29)
  store i32 %30, ptr %10, align 4, !tbaa !8
  %31 = load i32, ptr %10, align 4, !tbaa !8
  store i32 %31, ptr %5, align 4
  call void @llvm.lifetime.end.p0(i64 4, ptr %10) #20
  br label %32

32:                                               ; preds = %25, %23, %18, %14
  %33 = load i32, ptr %5, align 4
  ret i32 %33
}

; Function Attrs: mustprogress uwtable
define i32 @zmq_poller_wait(ptr noundef %0, ptr noundef %1, i64 noundef %2) #1 {
  %4 = alloca ptr, align 8
  %5 = alloca ptr, align 8
  %6 = alloca i64, align 8
  %7 = alloca i32, align 4
  store ptr %0, ptr %4, align 8, !tbaa !12
  store ptr %1, ptr %5, align 8, !tbaa !63
  store i64 %2, ptr %6, align 8, !tbaa !13
  call void @llvm.lifetime.start.p0(i64 4, ptr %7) #20
  %8 = load ptr, ptr %4, align 8, !tbaa !12
  %9 = load ptr, ptr %5, align 8, !tbaa !63
  %10 = load i64, ptr %6, align 8, !tbaa !13
  %11 = call i32 @zmq_poller_wait_all(ptr noundef %8, ptr noundef %9, i32 noundef 1, i64 noundef %10)
  store i32 %11, ptr %7, align 4, !tbaa !8
  %12 = load i32, ptr %7, align 4, !tbaa !8
  %13 = icmp slt i32 %12, 0
  br i1 %13, label %14, label %26

14:                                               ; preds = %3
  %15 = load ptr, ptr %5, align 8, !tbaa !63
  %16 = icmp ne ptr %15, null
  br i1 %16, label %17, label %26

17:                                               ; preds = %14
  %18 = load ptr, ptr %5, align 8, !tbaa !63
  %19 = getelementptr inbounds nuw %struct.zmq_poller_event_t, ptr %18, i32 0, i32 0
  store ptr null, ptr %19, align 8, !tbaa !69
  %20 = load ptr, ptr %5, align 8, !tbaa !63
  %21 = getelementptr inbounds nuw %struct.zmq_poller_event_t, ptr %20, i32 0, i32 1
  store i32 -1, ptr %21, align 8, !tbaa !71
  %22 = load ptr, ptr %5, align 8, !tbaa !63
  %23 = getelementptr inbounds nuw %struct.zmq_poller_event_t, ptr %22, i32 0, i32 2
  store ptr null, ptr %23, align 8, !tbaa !112
  %24 = load ptr, ptr %5, align 8, !tbaa !63
  %25 = getelementptr inbounds nuw %struct.zmq_poller_event_t, ptr %24, i32 0, i32 3
  store i16 0, ptr %25, align 8, !tbaa !72
  br label %26

26:                                               ; preds = %17, %14, %3
  %27 = load i32, ptr %7, align 4, !tbaa !8
  %28 = icmp sge i32 %27, 0
  br i1 %28, label %29, label %30

29:                                               ; preds = %26
  br label %32

30:                                               ; preds = %26
  %31 = load i32, ptr %7, align 4, !tbaa !8
  br label %32

32:                                               ; preds = %30, %29
  %33 = phi i32 [ 0, %29 ], [ %31, %30 ]
  call void @llvm.lifetime.end.p0(i64 4, ptr %7) #20
  ret i32 %33
}