; Function Attrs: mustprogress uwtable
define noundef range(i32 -2147483648, 1) i32 @zmq_poller_wait(ptr noundef %0, ptr noundef %1, i64 noundef %2) local_unnamed_addr #1 {
  %.not.i.i = icmp eq ptr %0, null
  br i1 %.not.i.i, label %_ZL12check_pollerPv.exit.thread.i, label %4

4:                                                ; preds = %3
  %5 = tail call noundef zeroext i1 @_ZNK3zmq15socket_poller_t9check_tagEv(ptr noundef nonnull align 8 dereferenceable(56) %0)
  br i1 %5, label %_ZL12check_pollerPv.exit.i, label %_ZL12check_pollerPv.exit.thread.i

_ZL12check_pollerPv.exit.thread.i:                ; preds = %4, %3
  %6 = tail call ptr @__errno_location() #20
  store i32 14, ptr %6, align 4, !tbaa !3
  br label %zmq_poller_wait_all.exit

_ZL12check_pollerPv.exit.i:                       ; preds = %4
  %.not.i = icmp eq ptr %1, null
  br i1 %.not.i, label %zmq_poller_wait_all.exit.thread, label %8

zmq_poller_wait_all.exit.thread:                  ; preds = %_ZL12check_pollerPv.exit.i
  %7 = tail call ptr @__errno_location() #20
  store i32 14, ptr %7, align 4, !tbaa !3
  br label %16

8:                                                ; preds = %_ZL12check_pollerPv.exit.i
  %9 = tail call noundef i32 @_ZN3zmq15socket_poller_t4waitEP18zmq_poller_event_til(ptr noundef nonnull align 8 dereferenceable(56) %0, ptr noundef nonnull %1, i32 noundef 1, i64 noundef %2)
  br label %zmq_poller_wait_all.exit

zmq_poller_wait_all.exit:                         ; preds = %_ZL12check_pollerPv.exit.thread.i, %8
  %.0.i = phi i32 [ %9, %8 ], [ -1, %_ZL12check_pollerPv.exit.thread.i ]
  %10 = icmp slt i32 %.0.i, 0
  %11 = icmp ne ptr %1, null
  %or.cond = and i1 %11, %10
  br i1 %or.cond, label %12, label %16

12:                                               ; preds = %zmq_poller_wait_all.exit
  store ptr null, ptr %1, align 8, !tbaa !39
  %13 = getelementptr inbounds nuw i8, ptr %1, i64 8
  store i32 -1, ptr %13, align 8, !tbaa !41
  %14 = getelementptr inbounds nuw i8, ptr %1, i64 16
  store ptr null, ptr %14, align 8, !tbaa !76
  %15 = getelementptr inbounds nuw i8, ptr %1, i64 24
  store i16 0, ptr %15, align 8, !tbaa !37
  br label %16

16:                                               ; preds = %zmq_poller_wait_all.exit.thread, %12, %zmq_poller_wait_all.exit
  %.0.i13 = phi i32 [ -1, %zmq_poller_wait_all.exit.thread ], [ %.0.i, %12 ], [ %.0.i, %zmq_poller_wait_all.exit ]
  %17 = tail call i32 @llvm.smin.i32(i32 %.0.i13, i32 0)
  ret i32 %17
}